target datalayout = "e-m:e-p270:32:32-p271:32:32-p272:64:64-i64:64-i128:128-f80:128-n8:16:32:64-S128"
target triple = "x86_64-pc-linux-gnu"

%struct._zval_struct = type { %union._zend_value, %union.anon, %union.anon.2 }
%union._zend_value = type { i64 }
%union.anon = type { i32 }
%union.anon.2 = type { i32 }
%struct._zend_refcounted_h = type { i32, %union.anon.3 }
%union.anon.3 = type { i32 }
%struct._spl_dllist_object = type { ptr, ptr, i32, i32, ptr, ptr, ptr, ptr, ptr, ptr, %struct._zend_object }
%struct._zend_object = type { %struct._zend_refcounted_h, i32, i32, ptr, ptr, ptr, [1 x %struct._zval_struct] }
%struct._spl_ptr_llist = type { ptr, ptr, i32 }
%struct.anon.0 = type { i8, i8, %union.anon.1 }
%union.anon.1 = type { i16 }

@.str.14 = private unnamed_addr constant [6 x i8] c"count\00", align 1

; Function Attrs: nounwind uwtable
define internal i64 @spl_ptr_llist_count(ptr noundef %0) #0 {
  %2 = alloca ptr, align 8
  store ptr %0, ptr %2, align 8, !tbaa !55
  %3 = load ptr, ptr %2, align 8, !tbaa !55
  %4 = getelementptr inbounds nuw %struct._spl_ptr_llist, ptr %3, i32 0, i32 2
  %5 = load i32, ptr %4, align 8, !tbaa !66
  %6 = sext i32 %5 to i64
  ret i64 %6
}

; Function Attrs: alwaysinline nounwind uwtable
define internal i64 @zval_get_long(ptr noundef %0) #6 {
  %2 = alloca ptr, align 8
  store ptr %0, ptr %2, align 8, !tbaa !9
  %3 = load ptr, ptr %2, align 8, !tbaa !9
  %4 = call zeroext i8 @zval_get_type(ptr noundef %3)
  %5 = zext i8 %4 to i32
  %6 = icmp eq i32 %5, 4
  %7 = xor i1 %6, true
  %8 = xor i1 %7, true
  %9 = zext i1 %8 to i32
  %10 = sext i32 %9 to i64
  %11 = call i64 @llvm.expect.i64(i64 %10, i64 1)
  %12 = icmp ne i64 %11, 0
  br i1 %12, label %13, label %17

13:                                               ; preds = %1
  %14 = load ptr, ptr %2, align 8, !tbaa !9
  %15 = getelementptr inbounds nuw %struct._zval_struct, ptr %14, i32 0, i32 0
  %16 = load i64, ptr %15, align 8, !tbaa !11
  br label %20

17:                                               ; preds = %1
  %18 = load ptr, ptr %2, align 8, !tbaa !9
  %19 = call i64 @zval_get_long_func(ptr noundef %18, i1 noundef zeroext false)
  br label %20

20:                                               ; preds = %17, %13
  %21 = phi i64 [ %16, %13 ], [ %19, %17 ]
  ret i64 %21
}

; Function Attrs: alwaysinline nounwind uwtable
define internal zeroext i8 @zval_get_type(ptr noundef %0) #6 {
  %2 = alloca ptr, align 8
  store ptr %0, ptr %2, align 8, !tbaa !9
  %3 = load ptr, ptr %2, align 8, !tbaa !9
  %4 = getelementptr inbounds nuw %struct._zval_struct, ptr %3, i32 0, i32 1
  %5 = getelementptr inbounds nuw %struct.anon.0, ptr %4, i32 0, i32 0
  %6 = load i8, ptr %5, align 8, !tbaa !11
  ret i8 %6
}

; Function Attrs: alwaysinline nounwind uwtable
define internal ptr @zend_call_method_with_0_params(ptr noundef %0, ptr noundef %1, ptr noundef %2, ptr noundef %3, ptr noundef %4) #6 {
  %6 = alloca ptr, align 8
  %7 = alloca ptr, align 8
  %8 = alloca ptr, align 8
  %9 = alloca ptr, align 8
  %10 = alloca ptr, align 8
  store ptr %0, ptr %6, align 8, !tbaa !54
  store ptr %1, ptr %7, align 8, !tbaa !67
  store ptr %2, ptr %8, align 8, !tbaa !128
  store ptr %3, ptr %9, align 8, !tbaa !90
  store ptr %4, ptr %10, align 8, !tbaa !9
  %11 = load ptr, ptr %6, align 8, !tbaa !54
  %12 = load ptr, ptr %7, align 8, !tbaa !67
  %13 = load ptr, ptr %8, align 8, !tbaa !128
  %14 = load ptr, ptr %9, align 8, !tbaa !90
  %15 = load ptr, ptr %9, align 8, !tbaa !90
  %16 = call i64 @strlen(ptr noundef %15) #15
  %17 = load ptr, ptr %10, align 8, !tbaa !9
  %18 = call ptr @zend_call_method(ptr noundef %11, ptr noundef %12, ptr noundef %13, ptr noundef %14, i64 noundef %16, ptr noundef %17, i32 noundef 0, ptr noundef null, ptr noundef null)
  ret ptr %18
}

; Function Attrs: inlinehint nounwind uwtable
define internal ptr @spl_dllist_from_obj(ptr noundef %0) #4 {
  %2 = alloca ptr, align 8
  store ptr %0, ptr %2, align 8, !tbaa !54
  %3 = load ptr, ptr %2, align 8, !tbaa !54
  %4 = getelementptr inbounds i8, ptr %3, i64 -72
  ret ptr %4
}

; Function Attrs: nounwind uwtable
define internal i32 @spl_dllist_object_count_elements(ptr noundef %0, ptr noundef %1) #0 {
  %3 = alloca i32, align 4
  %4 = alloca ptr, align 8
  %5 = alloca ptr, align 8
  %6 = alloca ptr, align 8
  %7 = alloca %struct._zval_struct, align 8
  %8 = alloca i32, align 4
  store ptr %0, ptr %4, align 8, !tbaa !54
  store ptr %1, ptr %5, align 8, !tbaa !69
  call void @llvm.lifetime.start.p0(i64 8, ptr %6) #14
  %9 = load ptr, ptr %4, align 8, !tbaa !54
  %10 = call ptr @spl_dllist_from_obj(ptr noundef %9)
  store ptr %10, ptr %6, align 8, !tbaa !45
  %11 = load ptr, ptr %6, align 8, !tbaa !45
  %12 = getelementptr inbounds nuw %struct._spl_dllist_object, ptr %11, i32 0, i32 8
  %13 = load ptr, ptr %12, align 8, !tbaa !71
  %14 = icmp ne ptr %13, null
  br i1 %14, label %15, label %33

15:                                               ; preds = %2
  call void @llvm.lifetime.start.p0(i64 16, ptr %7) #14
  %16 = load ptr, ptr %4, align 8, !tbaa !54
  %17 = load ptr, ptr %6, align 8, !tbaa !45
  %18 = getelementptr inbounds nuw %struct._spl_dllist_object, ptr %17, i32 0, i32 10
  %19 = getelementptr inbounds nuw %struct._zend_object, ptr %18, i32 0, i32 3
  %20 = load ptr, ptr %19, align 8, !tbaa !72
  %21 = load ptr, ptr %6, align 8, !tbaa !45
  %22 = getelementptr inbounds nuw %struct._spl_dllist_object, ptr %21, i32 0, i32 8
  %23 = call ptr @zend_call_method_with_0_params(ptr noundef %16, ptr noundef %20, ptr noundef %22, ptr noundef @.str.14, ptr noundef %7)
  %24 = call zeroext i8 @zval_get_type(ptr noundef %7)
  %25 = zext i8 %24 to i32
  %26 = icmp eq i32 %25, 0
  br i1 %26, label %30, label %27

27:                                               ; preds = %15
  %28 = call i64 @zval_get_long(ptr noundef %7)
  %29 = load ptr, ptr %5, align 8, !tbaa !69
  store i64 %28, ptr %29, align 8, !tbaa !68
  call void @zval_ptr_dtor(ptr noundef %7)
  store i32 0, ptr %3, align 4
  store i32 1, ptr %8, align 4
  br label %32

30:                                               ; preds = %15
  %31 = load ptr, ptr %5, align 8, !tbaa !69
  store i64 0, ptr %31, align 8, !tbaa !68
  store i32 -1, ptr %3, align 4
  store i32 1, ptr %8, align 4
  br label %32

32:                                               ; preds = %30, %27
  call void @llvm.lifetime.end.p0(i64 16, ptr %7) #14
  br label %39

33:                                               ; preds = %2
  %34 = load ptr, ptr %6, align 8, !tbaa !45
  %35 = getelementptr inbounds nuw %struct._spl_dllist_object, ptr %34, i32 0, i32 0
  %36 = load ptr, ptr %35, align 8, !tbaa !47
  %37 = call i64 @spl_ptr_llist_count(ptr noundef %36)
  %38 = load ptr, ptr %5, align 8, !tbaa !69
  store i64 %37, ptr %38, align 8, !tbaa !68
  store i32 0, ptr %3, align 4
  store i32 1, ptr %8, align 4
  br label %39

39:                                               ; preds = %33, %32
  call void @llvm.lifetime.end.p0(i64 8, ptr %6) #14
  %40 = load i32, ptr %3, align 4
  ret i32 %40
}