; Function Attrs: nounwind uwtable
define internal range(i32 -1, 1) i32 @spl_dllist_object_count_elements(ptr noundef %0, ptr noundef writeonly captures(none) initializes((0, 8)) %1) #0 {
  %3 = alloca %struct._zval_struct, align 8
  %4 = getelementptr inbounds i8, ptr %0, i64 -16
  %5 = load ptr, ptr %4, align 8, !tbaa !62
  %.not = icmp eq ptr %5, null
  br i1 %.not, label %19, label %6

6:                                                ; preds = %2
  call void @llvm.lifetime.start.p0(i64 16, ptr nonnull %3) #13
  %7 = getelementptr inbounds nuw i8, ptr %0, i64 16
  %8 = load ptr, ptr %7, align 8, !tbaa !63
  %9 = call ptr @zend_call_method(ptr noundef nonnull %0, ptr noundef %8, ptr noundef nonnull %4, ptr noundef nonnull @.str.14, i64 noundef 5, ptr noundef nonnull %3, i32 noundef 0, ptr noundef null, ptr noundef null) #13
  %10 = getelementptr inbounds nuw i8, ptr %3, i64 8
  %11 = load i8, ptr %10, align 8, !tbaa !4
  switch i8 %11, label %14 [
    i8 0, label %17
    i8 4, label %12
  ], !prof !64

12:                                               ; preds = %6
  %13 = load i64, ptr %3, align 8, !tbaa !4
  br label %zval_get_long.exit

14:                                               ; preds = %6
  %15 = call i64 @zval_get_long_func(ptr noundef nonnull %3, i1 noundef zeroext false) #13
  br label %zval_get_long.exit

zval_get_long.exit:                               ; preds = %12, %14
  %16 = phi i64 [ %13, %12 ], [ %15, %14 ]
  store i64 %16, ptr %1, align 8, !tbaa !65
  call void @zval_ptr_dtor(ptr noundef nonnull %3) #13
  br label %18

17:                                               ; preds = %6
  store i64 0, ptr %1, align 8, !tbaa !65
  br label %18

18:                                               ; preds = %17, %zval_get_long.exit
  %.0 = phi i32 [ -1, %17 ], [ 0, %zval_get_long.exit ]
  call void @llvm.lifetime.end.p0(i64 16, ptr nonnull %3) #13
  br label %24

19:                                               ; preds = %2
  %20 = getelementptr inbounds i8, ptr %0, i64 -72
  %21 = load ptr, ptr %20, align 8, !tbaa !43
  %22 = getelementptr i8, ptr %21, i64 16
  %.val = load i32, ptr %22, align 8, !tbaa !58
  %23 = sext i32 %.val to i64
  store i64 %23, ptr %1, align 8, !tbaa !65
  br label %24

24:                                               ; preds = %19, %18
  %.1 = phi i32 [ %.0, %18 ], [ 0, %19 ]
  ret i32 %.1
}